target datalayout = "e-m:e-p270:32:32-p271:32:32-p272:64:64-i64:64-i128:128-f80:128-n8:16:32:64-S128"
target triple = "x86_64-pc-linux-gnu"

%struct.ssl_trace_tbl = type { i32, ptr }

@.str.15 = private unnamed_addr constant [8 x i8] c"UNKNOWN\00", align 1
@.str.507 = private unnamed_addr constant [30 x i8] c"Compression type=%s (0x%04x)\0A\00", align 1
@.str.508 = private unnamed_addr constant [24 x i8] c"Uncompressed length=%d\0A\00", align 1
@.str.509 = private unnamed_addr constant [34 x i8] c"Compressed length=%d, Ratio=%f:1\0A\00", align 1
@.str.510 = private unnamed_addr constant [37 x i8] c"Compressed length=%d, Ratio=unknown\0A\00", align 1

; Function Attrs: nounwind uwtable
define internal ptr @do_ssl_trace_str(i32 noundef %0, ptr noundef %1, i64 noundef %2) #0 {
  %4 = alloca ptr, align 8
  %5 = alloca i32, align 4
  %6 = alloca ptr, align 8
  %7 = alloca i64, align 8
  %8 = alloca i64, align 8
  %9 = alloca i32, align 4
  store i32 %0, ptr %5, align 4, !tbaa !3
  store ptr %1, ptr %6, align 8, !tbaa !7
  store i64 %2, ptr %7, align 8, !tbaa !9
  call void @llvm.lifetime.start.p0(i64 8, ptr %8) #3
  store i64 0, ptr %8, align 8, !tbaa !9
  br label %10

10:                                               ; preds = %25, %3
  %11 = load i64, ptr %8, align 8, !tbaa !9
  %12 = load i64, ptr %7, align 8, !tbaa !9
  %13 = icmp ult i64 %11, %12
  br i1 %13, label %14, label %30

14:                                               ; preds = %10
  %15 = load ptr, ptr %6, align 8, !tbaa !7
  %16 = getelementptr inbounds nuw %struct.ssl_trace_tbl, ptr %15, i32 0, i32 0
  %17 = load i32, ptr %16, align 8, !tbaa !88
  %18 = load i32, ptr %5, align 4, !tbaa !3
  %19 = icmp eq i32 %17, %18
  br i1 %19, label %20, label %24

20:                                               ; preds = %14
  %21 = load ptr, ptr %6, align 8, !tbaa !7
  %22 = getelementptr inbounds nuw %struct.ssl_trace_tbl, ptr %21, i32 0, i32 1
  %23 = load ptr, ptr %22, align 8, !tbaa !90
  store ptr %23, ptr %4, align 8
  store i32 1, ptr %9, align 4
  br label %31

24:                                               ; preds = %14
  br label %25

25:                                               ; preds = %24
  %26 = load i64, ptr %8, align 8, !tbaa !9
  %27 = add i64 %26, 1
  store i64 %27, ptr %8, align 8, !tbaa !9
  %28 = load ptr, ptr %6, align 8, !tbaa !7
  %29 = getelementptr inbounds nuw %struct.ssl_trace_tbl, ptr %28, i32 1
  store ptr %29, ptr %6, align 8, !tbaa !7
  br label %10, !llvm.loop !91

30:                                               ; preds = %10
  store ptr @.str.15, ptr %4, align 8
  store i32 1, ptr %9, align 4
  br label %31

31:                                               ; preds = %30, %20
  call void @llvm.lifetime.end.p0(i64 8, ptr %8) #3
  %32 = load ptr, ptr %4, align 8
  ret ptr %32
}

; Function Attrs: nounwind uwtable
define internal i32 @ssl_print_compressed_certificates(ptr noundef %0, ptr noundef %1, i32 noundef %2, i32 noundef %3, ptr noundef %4, i64 noundef %5) #0 {
  %7 = alloca i32, align 4
  %8 = alloca ptr, align 8
  %9 = alloca ptr, align 8
  %10 = alloca i32, align 4
  %11 = alloca i32, align 4
  %12 = alloca ptr, align 8
  %13 = alloca i64, align 8
  %14 = alloca i64, align 8
  %15 = alloca i64, align 8
  %16 = alloca i32, align 4
  %17 = alloca i32, align 4
  %18 = alloca i32, align 4
  store ptr %0, ptr %8, align 8, !tbaa !15
  store ptr %1, ptr %9, align 8, !tbaa !25
  store i32 %2, ptr %10, align 4, !tbaa !3
  store i32 %3, ptr %11, align 4, !tbaa !3
  store ptr %4, ptr %12, align 8, !tbaa !13
  store i64 %5, ptr %13, align 8, !tbaa !9
  call void @llvm.lifetime.start.p0(i64 8, ptr %14) #3
  call void @llvm.lifetime.start.p0(i64 8, ptr %15) #3
  call void @llvm.lifetime.start.p0(i64 4, ptr %16) #3
  call void @llvm.lifetime.start.p0(i64 4, ptr %17) #3
  store i32 1, ptr %17, align 4, !tbaa !3
  %19 = load i64, ptr %13, align 8, !tbaa !9
  %20 = icmp ult i64 %19, 8
  br i1 %20, label %21, label %22

21:                                               ; preds = %6
  store i32 0, ptr %7, align 4
  store i32 1, ptr %18, align 4
  br label %119

22:                                               ; preds = %6
  %23 = load ptr, ptr %12, align 8, !tbaa !13
  %24 = getelementptr inbounds i8, ptr %23, i64 0
  %25 = load i8, ptr %24, align 1, !tbaa !84
  %26 = zext i8 %25 to i32
  %27 = shl i32 %26, 8
  %28 = load ptr, ptr %12, align 8, !tbaa !13
  %29 = getelementptr inbounds i8, ptr %28, i64 1
  %30 = load i8, ptr %29, align 1, !tbaa !84
  %31 = zext i8 %30 to i32
  %32 = or i32 %27, %31
  store i32 %32, ptr %16, align 4, !tbaa !3
  %33 = load ptr, ptr %12, align 8, !tbaa !13
  %34 = getelementptr inbounds i8, ptr %33, i64 2
  %35 = load i8, ptr %34, align 1, !tbaa !84
  %36 = zext i8 %35 to i32
  %37 = shl i32 %36, 16
  %38 = load ptr, ptr %12, align 8, !tbaa !13
  %39 = getelementptr inbounds i8, ptr %38, i64 3
  %40 = load i8, ptr %39, align 1, !tbaa !84
  %41 = zext i8 %40 to i32
  %42 = shl i32 %41, 8
  %43 = or i32 %37, %42
  %44 = load ptr, ptr %12, align 8, !tbaa !13
  %45 = getelementptr inbounds i8, ptr %44, i64 4
  %46 = load i8, ptr %45, align 1, !tbaa !84
  %47 = zext i8 %46 to i32
  %48 = or i32 %43, %47
  %49 = sext i32 %48 to i64
  store i64 %49, ptr %14, align 8, !tbaa !9
  %50 = load ptr, ptr %12, align 8, !tbaa !13
  %51 = getelementptr inbounds i8, ptr %50, i64 5
  %52 = load i8, ptr %51, align 1, !tbaa !84
  %53 = zext i8 %52 to i32
  %54 = shl i32 %53, 16
  %55 = load ptr, ptr %12, align 8, !tbaa !13
  %56 = getelementptr inbounds i8, ptr %55, i64 6
  %57 = load i8, ptr %56, align 1, !tbaa !84
  %58 = zext i8 %57 to i32
  %59 = shl i32 %58, 8
  %60 = or i32 %54, %59
  %61 = load ptr, ptr %12, align 8, !tbaa !13
  %62 = getelementptr inbounds i8, ptr %61, i64 7
  %63 = load i8, ptr %62, align 1, !tbaa !84
  %64 = zext i8 %63 to i32
  %65 = or i32 %60, %64
  %66 = sext i32 %65 to i64
  store i64 %66, ptr %15, align 8, !tbaa !9
  %67 = load i64, ptr %13, align 8, !tbaa !9
  %68 = load i64, ptr %15, align 8, !tbaa !9
  %69 = add i64 %68, 8
  %70 = icmp ne i64 %67, %69
  br i1 %70, label %71, label %72

71:                                               ; preds = %22
  store i32 0, ptr %7, align 4
  store i32 1, ptr %18, align 4
  br label %119

72:                                               ; preds = %22
  %73 = load ptr, ptr %12, align 8, !tbaa !13
  %74 = getelementptr inbounds i8, ptr %73, i64 8
  store ptr %74, ptr %12, align 8, !tbaa !13
  %75 = load ptr, ptr %8, align 8, !tbaa !15
  %76 = load i32, ptr %11, align 4, !tbaa !3
  %77 = call i32 @BIO_indent(ptr noundef %75, i32 noundef %76, i32 noundef 80)
  %78 = load ptr, ptr %8, align 8, !tbaa !15
  %79 = load i32, ptr %16, align 4, !tbaa !3
  %80 = call ptr @do_ssl_trace_str(i32 noundef %79, ptr noundef @ssl_comp_cert_tbl, i64 noundef 4)
  %81 = load i32, ptr %16, align 4, !tbaa !3
  %82 = call i32 (ptr, ptr, ...) @BIO_printf(ptr noundef %78, ptr noundef @.str.507, ptr noundef %80, i32 noundef %81)
  %83 = load ptr, ptr %8, align 8, !tbaa !15
  %84 = load i32, ptr %11, align 4, !tbaa !3
  %85 = call i32 @BIO_indent(ptr noundef %83, i32 noundef %84, i32 noundef 80)
  %86 = load ptr, ptr %8, align 8, !tbaa !15
  %87 = load i64, ptr %14, align 8, !tbaa !9
  %88 = trunc i64 %87 to i32
  %89 = call i32 (ptr, ptr, ...) @BIO_printf(ptr noundef %86, ptr noundef @.str.508, i32 noundef %88)
  %90 = load ptr, ptr %8, align 8, !tbaa !15
  %91 = load i32, ptr %11, align 4, !tbaa !3
  %92 = call i32 @BIO_indent(ptr noundef %90, i32 noundef %91, i32 noundef 80)
  %93 = load i64, ptr %15, align 8, !tbaa !9
  %94 = icmp ugt i64 %93, 0
  br i1 %94, label %95, label %106

95:                                               ; preds = %72
  %96 = load ptr, ptr %8, align 8, !tbaa !15
  %97 = load i64, ptr %15, align 8, !tbaa !9
  %98 = trunc i64 %97 to i32
  %99 = load i64, ptr %14, align 8, !tbaa !9
  %100 = uitofp i64 %99 to float
  %101 = load i64, ptr %15, align 8, !tbaa !9
  %102 = uitofp i64 %101 to float
  %103 = fdiv float %100, %102
  %104 = fpext float %103 to double
  %105 = call i32 (ptr, ptr, ...) @BIO_printf(ptr noundef %96, ptr noundef @.str.509, i32 noundef %98, double noundef %104)
  br label %111

106:                                              ; preds = %72
  %107 = load ptr, ptr %8, align 8, !tbaa !15
  %108 = load i64, ptr %15, align 8, !tbaa !9
  %109 = trunc i64 %108 to i32
  %110 = call i32 (ptr, ptr, ...) @BIO_printf(ptr noundef %107, ptr noundef @.str.510, i32 noundef %109)
  br label %111

111:                                              ; preds = %106, %95
  %112 = load ptr, ptr %8, align 8, !tbaa !15
  %113 = load ptr, ptr %12, align 8, !tbaa !13
  %114 = load i64, ptr %15, align 8, !tbaa !9
  %115 = trunc i64 %114 to i32
  %116 = load i32, ptr %11, align 4, !tbaa !3
  %117 = call i32 @BIO_dump_indent(ptr noundef %112, ptr noundef %113, i32 noundef %115, i32 noundef %116)
  %118 = load i32, ptr %17, align 4, !tbaa !3
  store i32 %118, ptr %7, align 4
  store i32 1, ptr %18, align 4
  br label %119

119:                                              ; preds = %111, %71, %21
  call void @llvm.lifetime.end.p0(i64 4, ptr %17) #3
  call void @llvm.lifetime.end.p0(i64 4, ptr %16) #3
  call void @llvm.lifetime.end.p0(i64 8, ptr %15) #3
  call void @llvm.lifetime.end.p0(i64 8, ptr %14) #3
  %120 = load i32, ptr %7, align 4
  ret i32 %120
}