; Function Attrs: nounwind uwtable
define internal fastcc range(i32 0, 2) i32 @ssl_print_compressed_certificates(ptr noundef %0, ptr noundef %1, i64 noundef %2) unnamed_addr #0 {
  %4 = icmp ult i64 %2, 8
  br i1 %4, label %66, label %5

5:                                                ; preds = %3
  %6 = getelementptr inbounds nuw i8, ptr %1, i64 2
  %7 = load i8, ptr %6, align 1, !tbaa !75
  %8 = zext i8 %7 to i32
  %9 = shl nuw nsw i32 %8, 16
  %10 = getelementptr inbounds nuw i8, ptr %1, i64 3
  %11 = load i8, ptr %10, align 1, !tbaa !75
  %12 = zext i8 %11 to i32
  %13 = shl nuw nsw i32 %12, 8
  %14 = or disjoint i32 %13, %9
  %15 = getelementptr inbounds nuw i8, ptr %1, i64 4
  %16 = load i8, ptr %15, align 1, !tbaa !75
  %17 = zext i8 %16 to i32
  %18 = or disjoint i32 %14, %17
  %19 = getelementptr inbounds nuw i8, ptr %1, i64 5
  %20 = load i8, ptr %19, align 1, !tbaa !75
  %21 = zext i8 %20 to i32
  %22 = shl nuw nsw i32 %21, 16
  %23 = getelementptr inbounds nuw i8, ptr %1, i64 6
  %24 = load i8, ptr %23, align 1, !tbaa !75
  %25 = zext i8 %24 to i32
  %26 = shl nuw nsw i32 %25, 8
  %27 = or disjoint i32 %26, %22
  %28 = getelementptr inbounds nuw i8, ptr %1, i64 7
  %29 = load i8, ptr %28, align 1, !tbaa !75
  %30 = zext i8 %29 to i32
  %31 = or disjoint i32 %27, %30
  %narrow = add nuw nsw i32 %31, 8
  %32 = zext nneg i32 %narrow to i64
  %.not = icmp eq i64 %2, %32
  br i1 %.not, label %33, label %66

33:                                               ; preds = %5
  %34 = load i8, ptr %1, align 1, !tbaa !75
  %35 = zext i8 %34 to i32
  %36 = shl nuw nsw i32 %35, 8
  %37 = getelementptr inbounds nuw i8, ptr %1, i64 1
  %38 = load i8, ptr %37, align 1, !tbaa !75
  %39 = zext i8 %38 to i32
  %40 = or disjoint i32 %36, %39
  %41 = getelementptr inbounds nuw i8, ptr %1, i64 8
  %42 = tail call i32 @BIO_indent(ptr noundef %0, i32 noundef 6, i32 noundef 80) #3
  br label %43

43:                                               ; preds = %49, %33
  %.011.i = phi i64 [ 0, %33 ], [ %50, %49 ]
  %.0810.i = phi ptr [ @ssl_comp_cert_tbl, %33 ], [ %51, %49 ]
  %44 = load i32, ptr %.0810.i, align 8, !tbaa !78
  %45 = icmp eq i32 %44, %40
  br i1 %45, label %46, label %49

46:                                               ; preds = %43
  %47 = getelementptr inbounds nuw i8, ptr %.0810.i, i64 8
  %48 = load ptr, ptr %47, align 8, !tbaa !80
  br label %do_ssl_trace_str.exit

49:                                               ; preds = %43
  %50 = add nuw nsw i64 %.011.i, 1
  %51 = getelementptr inbounds nuw i8, ptr %.0810.i, i64 16
  %exitcond.not.i = icmp eq i64 %50, 4
  br i1 %exitcond.not.i, label %do_ssl_trace_str.exit, label %43, !llvm.loop !81

do_ssl_trace_str.exit:                            ; preds = %49, %46
  %.07.i = phi ptr [ %48, %46 ], [ @.str.15, %49 ]
  %52 = tail call i32 (ptr, ptr, ...) @BIO_printf(ptr noundef %0, ptr noundef nonnull @.str.507, ptr noundef %.07.i, i32 noundef %40) #3
  %53 = tail call i32 @BIO_indent(ptr noundef %0, i32 noundef 6, i32 noundef 80) #3
  %54 = tail call i32 (ptr, ptr, ...) @BIO_printf(ptr noundef %0, ptr noundef nonnull @.str.508, i32 noundef %18) #3
  %55 = tail call i32 @BIO_indent(ptr noundef %0, i32 noundef 6, i32 noundef 80) #3
  %.not37 = icmp eq i32 %31, 0
  br i1 %.not37, label %62, label %56

56:                                               ; preds = %do_ssl_trace_str.exit
  %57 = uitofp nneg i32 %18 to float
  %58 = uitofp nneg i32 %31 to float
  %59 = fdiv float %57, %58
  %60 = fpext float %59 to double
  %61 = tail call i32 (ptr, ptr, ...) @BIO_printf(ptr noundef %0, ptr noundef nonnull @.str.509, i32 noundef %31, double noundef %60) #3
  br label %64

62:                                               ; preds = %do_ssl_trace_str.exit
  %63 = tail call i32 (ptr, ptr, ...) @BIO_printf(ptr noundef %0, ptr noundef nonnull @.str.510, i32 noundef 0) #3
  br label %64

64:                                               ; preds = %62, %56
  %65 = tail call i32 @BIO_dump_indent(ptr noundef %0, ptr noundef nonnull %41, i32 noundef %31, i32 noundef 6) #3
  br label %66

66:                                               ; preds = %5, %3, %64
  %.0 = phi i32 [ 1, %64 ], [ 0, %3 ], [ 0, %5 ]
  ret i32 %.0
}